target datalayout = "e-m:e-p270:32:32-p271:32:32-p272:64:64-i64:64-i128:128-f80:128-n8:16:32:64-S128"
target triple = "x86_64-pc-linux-gnu"

%struct.H5D_chk_idx_info_t = type { ptr, ptr, ptr, ptr }
%struct.H5O_layout_chunk_t = type { i32, i8, i32, [33 x i32], i32, i32, i64, i64, [33 x i64], [33 x i64], [33 x i64], [33 x i64], %union.anon.0 }
%union.anon.0 = type { %struct.H5O_layout_chunk_earray_t }
%struct.H5O_layout_chunk_earray_t = type { %struct.anon.1, i32, [33 x i32], [33 x i64], [33 x i64] }
%struct.anon.1 = type { i8, i8, i8, i8, i8 }
%struct.H5O_storage_chunk_t = type { i32, i64, ptr, %union.anon.4 }
%union.anon.4 = type { %struct.H5O_storage_chunk_btree_t }
%struct.H5O_storage_chunk_btree_t = type { i64, ptr }
%struct.H5O_storage_chunk_earray_t = type { i64, ptr }
%struct.H5D_earray_ctx_ud_t = type { ptr, i32 }

@H5D_init_g = external global i8, align 1
@H5_libterm_g = external global i8, align 1
@.str.2 = private unnamed_addr constant [103 x i8] c"generated/home/dtcxzyw/WorkSpace/Projects/compilers/llvm-opt-benchmark/bench/hdf5/hdf5/src/H5Dearray.c\00", align 1
@H5E_DATASET_g = external global i64, align 8
@H5E_CANTCLOSEOBJ_g = external global i64, align 8
@__func__.H5D__earray_idx_close = private unnamed_addr constant [22 x i8] c"H5D__earray_idx_close\00", align 1
@.str.26 = private unnamed_addr constant [33 x i8] c"unable to close extensible array\00", align 1
@H5E_BADITER_g = external global i64, align 8
@__func__.H5D__earray_idx_delete = private unnamed_addr constant [23 x i8] c"H5D__earray_idx_delete\00", align 1
@.str.41 = private unnamed_addr constant [39 x i8] c"unable to iterate over chunk addresses\00", align 1
@H5E_CANTDELETE_g = external global i64, align 8
@.str.42 = private unnamed_addr constant [40 x i8] c"unable to delete chunk extensible array\00", align 1

; Function Attrs: nounwind uwtable
define internal i32 @H5D__earray_idx_close(ptr noundef %0) #0 {
  %2 = alloca ptr, align 8
  %3 = alloca i32, align 4
  %4 = alloca i8, align 1
  store ptr %0, ptr %2, align 8, !tbaa !3
  call void @llvm.lifetime.start.p0(i64 4, ptr %3) #8
  store i32 0, ptr %3, align 4, !tbaa !12
  call void @llvm.lifetime.start.p0(i64 1, ptr %4) #8
  store i8 0, ptr %4, align 1, !tbaa !14
  %5 = load i8, ptr @H5D_init_g, align 1, !tbaa !14, !range !16, !noundef !17
  %6 = trunc i8 %5 to i1
  br i1 %6, label %11, label %7

7:                                                ; preds = %1
  %8 = load i8, ptr @H5_libterm_g, align 1, !tbaa !14, !range !16, !noundef !17
  %9 = trunc i8 %8 to i1
  %10 = xor i1 %9, true
  br label %11

11:                                               ; preds = %7, %1
  %12 = phi i1 [ true, %1 ], [ %10, %7 ]
  %13 = xor i1 %12, true
  %14 = xor i1 %13, true
  %15 = zext i1 %14 to i32
  %16 = sext i32 %15 to i64
  %17 = call i64 @llvm.expect.i64(i64 %16, i64 1)
  %18 = icmp ne i64 %17, 0
  br i1 %18, label %19, label %54

19:                                               ; preds = %11
  %20 = load ptr, ptr %2, align 8, !tbaa !3
  %21 = getelementptr inbounds nuw %struct.H5D_chk_idx_info_t, ptr %20, i32 0, i32 3
  %22 = load ptr, ptr %21, align 8, !tbaa !27
  %23 = getelementptr inbounds nuw %struct.H5O_storage_chunk_t, ptr %22, i32 0, i32 3
  %24 = getelementptr inbounds nuw %struct.H5O_storage_chunk_earray_t, ptr %23, i32 0, i32 1
  %25 = load ptr, ptr %24, align 8, !tbaa !26
  %26 = call i32 @H5EA_close(ptr noundef %25)
  %27 = icmp slt i32 %26, 0
  br i1 %27, label %28, label %47

28:                                               ; preds = %19
  br label %29

29:                                               ; preds = %28
  br label %30

30:                                               ; preds = %29
  br label %31

31:                                               ; preds = %30
  %32 = load i64, ptr @H5E_DATASET_g, align 8, !tbaa !10
  %33 = load i64, ptr @H5E_CANTCLOSEOBJ_g, align 8, !tbaa !10
  %34 = call i32 (ptr, ptr, i32, i64, i64, ptr, ...) @H5E_printf_stack(ptr noundef @.str.2, ptr noundef @__func__.H5D__earray_idx_close, i32 noundef 941, i64 noundef %32, i64 noundef %33, ptr noundef @.str.26)
  br label %35

35:                                               ; preds = %31
  br label %36

36:                                               ; preds = %35
  store i8 1, ptr %4, align 1, !tbaa !14
  %37 = load i8, ptr %4, align 1, !tbaa !14, !range !16, !noundef !17
  %38 = trunc i8 %37 to i1
  %39 = zext i1 %38 to i8
  store i8 %39, ptr %4, align 1, !tbaa !14
  br label %40

40:                                               ; preds = %36
  br label %41

41:                                               ; preds = %40
  br label %42

42:                                               ; preds = %41
  store i32 -1, ptr %3, align 4, !tbaa !12
  br label %53

43:                                               ; No predecessors!
  br label %44

44:                                               ; preds = %43
  br label %45

45:                                               ; preds = %44
  br label %46

46:                                               ; preds = %45
  br label %47

47:                                               ; preds = %46, %19
  %48 = load ptr, ptr %2, align 8, !tbaa !3
  %49 = getelementptr inbounds nuw %struct.H5D_chk_idx_info_t, ptr %48, i32 0, i32 3
  %50 = load ptr, ptr %49, align 8, !tbaa !27
  %51 = getelementptr inbounds nuw %struct.H5O_storage_chunk_t, ptr %50, i32 0, i32 3
  %52 = getelementptr inbounds nuw %struct.H5O_storage_chunk_earray_t, ptr %51, i32 0, i32 1
  store ptr null, ptr %52, align 8, !tbaa !26
  br label %53

53:                                               ; preds = %47, %42
  br label %54

54:                                               ; preds = %53, %11
  %55 = load i32, ptr %3, align 4, !tbaa !12
  call void @llvm.lifetime.end.p0(i64 1, ptr %4) #8
  call void @llvm.lifetime.end.p0(i64 4, ptr %3) #8
  ret i32 %55
}

; Function Attrs: nounwind uwtable
define internal i32 @H5D__earray_idx_delete(ptr noundef %0) #0 {
  %2 = alloca i32, align 4
  %3 = alloca ptr, align 8
  %4 = alloca i32, align 4
  %5 = alloca i8, align 1
  %6 = alloca %struct.H5D_earray_ctx_ud_t, align 8
  %7 = alloca i32, align 4
  store ptr %0, ptr %3, align 8, !tbaa !3
  call void @llvm.lifetime.start.p0(i64 4, ptr %4) #8
  store i32 0, ptr %4, align 4, !tbaa !12
  call void @llvm.lifetime.start.p0(i64 1, ptr %5) #8
  store i8 0, ptr %5, align 1, !tbaa !14
  %8 = load i8, ptr @H5D_init_g, align 1, !tbaa !14, !range !16, !noundef !17
  %9 = trunc i8 %8 to i1
  br i1 %9, label %14, label %10

10:                                               ; preds = %1
  %11 = load i8, ptr @H5_libterm_g, align 1, !tbaa !14, !range !16, !noundef !17
  %12 = trunc i8 %11 to i1
  %13 = xor i1 %12, true
  br label %14

14:                                               ; preds = %10, %1
  %15 = phi i1 [ true, %1 ], [ %13, %10 ]
  %16 = xor i1 %15, true
  %17 = xor i1 %16, true
  %18 = zext i1 %17 to i32
  %19 = sext i32 %18 to i64
  %20 = call i64 @llvm.expect.i64(i64 %19, i64 1)
  %21 = icmp ne i64 %20, 0
  br i1 %21, label %22, label %129

22:                                               ; preds = %14
  %23 = load ptr, ptr %3, align 8, !tbaa !3
  %24 = getelementptr inbounds nuw %struct.H5D_chk_idx_info_t, ptr %23, i32 0, i32 3
  %25 = load ptr, ptr %24, align 8, !tbaa !27
  %26 = getelementptr inbounds nuw %struct.H5O_storage_chunk_t, ptr %25, i32 0, i32 1
  %27 = load i64, ptr %26, align 8, !tbaa !48
  %28 = icmp ne i64 %27, -1
  br i1 %28, label %29, label %126

29:                                               ; preds = %22
  call void @llvm.lifetime.start.p0(i64 16, ptr %6) #8
  %30 = load ptr, ptr %3, align 8, !tbaa !3
  %31 = load ptr, ptr %3, align 8, !tbaa !3
  %32 = getelementptr inbounds nuw %struct.H5D_chk_idx_info_t, ptr %31, i32 0, i32 0
  %33 = load ptr, ptr %32, align 8, !tbaa !38
  %34 = call i32 @H5D__earray_idx_iterate(ptr noundef %30, ptr noundef @H5D__earray_idx_delete_cb, ptr noundef %33)
  %35 = icmp slt i32 %34, 0
  br i1 %35, label %36, label %55

36:                                               ; preds = %29
  br label %37

37:                                               ; preds = %36
  br label %38

38:                                               ; preds = %37
  br label %39

39:                                               ; preds = %38
  %40 = load i64, ptr @H5E_DATASET_g, align 8, !tbaa !10
  %41 = load i64, ptr @H5E_BADITER_g, align 8, !tbaa !10
  %42 = call i32 (ptr, ptr, i32, i64, i64, ptr, ...) @H5E_printf_stack(ptr noundef @.str.2, ptr noundef @__func__.H5D__earray_idx_delete, i32 noundef 1549, i64 noundef %40, i64 noundef %41, ptr noundef @.str.41)
  br label %43

43:                                               ; preds = %39
  br label %44

44:                                               ; preds = %43
  store i8 1, ptr %5, align 1, !tbaa !14
  %45 = load i8, ptr %5, align 1, !tbaa !14, !range !16, !noundef !17
  %46 = trunc i8 %45 to i1
  %47 = zext i1 %46 to i8
  store i8 %47, ptr %5, align 1, !tbaa !14
  br label %48

48:                                               ; preds = %44
  br label %49

49:                                               ; preds = %48
  br label %50

50:                                               ; preds = %49
  store i32 -1, ptr %4, align 4, !tbaa !12
  store i32 10, ptr %7, align 4
  br label %123

51:                                               ; No predecessors!
  br label %52

52:                                               ; preds = %51
  br label %53

53:                                               ; preds = %52
  br label %54

54:                                               ; preds = %53
  br label %55

55:                                               ; preds = %54, %29
  %56 = load ptr, ptr %3, align 8, !tbaa !3
  %57 = call i32 @H5D__earray_idx_close(ptr noundef %56)
  %58 = icmp slt i32 %57, 0
  br i1 %58, label %59, label %78

59:                                               ; preds = %55
  br label %60

60:                                               ; preds = %59
  br label %61

61:                                               ; preds = %60
  br label %62

62:                                               ; preds = %61
  %63 = load i64, ptr @H5E_DATASET_g, align 8, !tbaa !10
  %64 = load i64, ptr @H5E_CANTCLOSEOBJ_g, align 8, !tbaa !10
  %65 = call i32 (ptr, ptr, i32, i64, i64, ptr, ...) @H5E_printf_stack(ptr noundef @.str.2, ptr noundef @__func__.H5D__earray_idx_delete, i32 noundef 1553, i64 noundef %63, i64 noundef %64, ptr noundef @.str.26)
  br label %66

66:                                               ; preds = %62
  br label %67

67:                                               ; preds = %66
  store i8 1, ptr %5, align 1, !tbaa !14
  %68 = load i8, ptr %5, align 1, !tbaa !14, !range !16, !noundef !17
  %69 = trunc i8 %68 to i1
  %70 = zext i1 %69 to i8
  store i8 %70, ptr %5, align 1, !tbaa !14
  br label %71

71:                                               ; preds = %67
  br label %72

72:                                               ; preds = %71
  br label %73

73:                                               ; preds = %72
  store i32 -1, ptr %4, align 4, !tbaa !12
  store i32 10, ptr %7, align 4
  br label %123

74:                                               ; No predecessors!
  br label %75

75:                                               ; preds = %74
  br label %76

76:                                               ; preds = %75
  br label %77

77:                                               ; preds = %76
  br label %78

78:                                               ; preds = %77, %55
  %79 = load ptr, ptr %3, align 8, !tbaa !3
  %80 = getelementptr inbounds nuw %struct.H5D_chk_idx_info_t, ptr %79, i32 0, i32 0
  %81 = load ptr, ptr %80, align 8, !tbaa !38
  %82 = getelementptr inbounds nuw %struct.H5D_earray_ctx_ud_t, ptr %6, i32 0, i32 0
  store ptr %81, ptr %82, align 8, !tbaa !45
  %83 = load ptr, ptr %3, align 8, !tbaa !3
  %84 = getelementptr inbounds nuw %struct.H5D_chk_idx_info_t, ptr %83, i32 0, i32 2
  %85 = load ptr, ptr %84, align 8, !tbaa !20
  %86 = getelementptr inbounds nuw %struct.H5O_layout_chunk_t, ptr %85, i32 0, i32 5
  %87 = load i32, ptr %86, align 4, !tbaa !33
  %88 = getelementptr inbounds nuw %struct.H5D_earray_ctx_ud_t, ptr %6, i32 0, i32 1
  store i32 %87, ptr %88, align 8, !tbaa !47
  %89 = load ptr, ptr %3, align 8, !tbaa !3
  %90 = getelementptr inbounds nuw %struct.H5D_chk_idx_info_t, ptr %89, i32 0, i32 0
  %91 = load ptr, ptr %90, align 8, !tbaa !38
  %92 = load ptr, ptr %3, align 8, !tbaa !3
  %93 = getelementptr inbounds nuw %struct.H5D_chk_idx_info_t, ptr %92, i32 0, i32 3
  %94 = load ptr, ptr %93, align 8, !tbaa !27
  %95 = getelementptr inbounds nuw %struct.H5O_storage_chunk_t, ptr %94, i32 0, i32 1
  %96 = load i64, ptr %95, align 8, !tbaa !48
  %97 = call i32 @H5EA_delete(ptr noundef %91, i64 noundef %96, ptr noundef %6)
  %98 = icmp slt i32 %97, 0
  br i1 %98, label %99, label %118

99:                                               ; preds = %78
  br label %100

100:                                              ; preds = %99
  br label %101

101:                                              ; preds = %100
  br label %102

102:                                              ; preds = %101
  %103 = load i64, ptr @H5E_DATASET_g, align 8, !tbaa !10
  %104 = load i64, ptr @H5E_CANTDELETE_g, align 8, !tbaa !10
  %105 = call i32 (ptr, ptr, i32, i64, i64, ptr, ...) @H5E_printf_stack(ptr noundef @.str.2, ptr noundef @__func__.H5D__earray_idx_delete, i32 noundef 1561, i64 noundef %103, i64 noundef %104, ptr noundef @.str.42)
  br label %106

106:                                              ; preds = %102
  br label %107

107:                                              ; preds = %106
  store i8 1, ptr %5, align 1, !tbaa !14
  %108 = load i8, ptr %5, align 1, !tbaa !14, !range !16, !noundef !17
  %109 = trunc i8 %108 to i1
  %110 = zext i1 %109 to i8
  store i8 %110, ptr %5, align 1, !tbaa !14
  br label %111

111:                                              ; preds = %107
  br label %112

112:                                              ; preds = %111
  br label %113

113:                                              ; preds = %112
  store i32 -1, ptr %4, align 4, !tbaa !12
  store i32 10, ptr %7, align 4
  br label %123

114:                                              ; No predecessors!
  br label %115

115:                                              ; preds = %114
  br label %116

116:                                              ; preds = %115
  br label %117

117:                                              ; preds = %116
  br label %118

118:                                              ; preds = %117, %78
  %119 = load ptr, ptr %3, align 8, !tbaa !3
  %120 = getelementptr inbounds nuw %struct.H5D_chk_idx_info_t, ptr %119, i32 0, i32 3
  %121 = load ptr, ptr %120, align 8, !tbaa !27
  %122 = getelementptr inbounds nuw %struct.H5O_storage_chunk_t, ptr %121, i32 0, i32 1
  store i64 -1, ptr %122, align 8, !tbaa !48
  store i32 0, ptr %7, align 4
  br label %123

123:                                              ; preds = %113, %73, %50, %118
  call void @llvm.lifetime.end.p0(i64 16, ptr %6) #8
  %124 = load i32, ptr %7, align 4
  switch i32 %124, label %131 [
    i32 0, label %125
    i32 10, label %128
  ]

125:                                              ; preds = %123
  br label %127

126:                                              ; preds = %22
  br label %127

127:                                              ; preds = %126, %125
  br label %128

128:                                              ; preds = %127, %123
  br label %129

129:                                              ; preds = %128, %14
  %130 = load i32, ptr %4, align 4, !tbaa !12
  store i32 %130, ptr %2, align 4
  store i32 1, ptr %7, align 4
  br label %131

131:                                              ; preds = %129, %123
  call void @llvm.lifetime.end.p0(i64 1, ptr %5) #8
  call void @llvm.lifetime.end.p0(i64 4, ptr %4) #8
  %132 = load i32, ptr %2, align 4
  ret i32 %132
}