; Function Attrs: nounwind uwtable
define internal range(i32 -1, 1) i32 @H5D__earray_idx_delete(ptr noundef readonly captures(none) %0) #0 {
  %2 = alloca %struct.H5D_earray_ctx_ud_t, align 8
  %3 = load i8, ptr @H5D_init_g, align 1, !tbaa !3, !range !7, !noundef !8
  %4 = trunc nuw i8 %3 to i1
  %5 = load i8, ptr @H5_libterm_g, align 1, !range !7
  %6 = trunc nuw i8 %5 to i1
  %7 = xor i1 %6, true
  %8 = select i1 %4, i1 true, i1 %7
  br i1 %8, label %9, label %65, !prof !9

9:                                                ; preds = %1
  %10 = getelementptr inbounds nuw i8, ptr %0, i64 24
  %11 = load ptr, ptr %10, align 8, !tbaa !22
  %12 = getelementptr inbounds nuw i8, ptr %11, i64 8
  %13 = load i64, ptr %12, align 8, !tbaa !44
  %.not = icmp eq i64 %13, -1
  br i1 %.not, label %65, label %14

14:                                               ; preds = %9
  call void @llvm.lifetime.start.p0(i64 16, ptr nonnull %2) #11
  %15 = load ptr, ptr %0, align 8, !tbaa !34
  %16 = tail call i32 @H5D__earray_idx_iterate(ptr noundef nonnull %0, ptr noundef nonnull @H5D__earray_idx_delete_cb, ptr noundef %15)
  %17 = icmp slt i32 %16, 0
  br i1 %17, label %18, label %22

18:                                               ; preds = %14
  %19 = load i64, ptr @H5E_DATASET_g, align 8, !tbaa !10
  %20 = load i64, ptr @H5E_BADITER_g, align 8, !tbaa !10
  %21 = tail call i32 (ptr, ptr, i32, i64, i64, ptr, ...) @H5E_printf_stack(ptr noundef nonnull @.str.2, ptr noundef nonnull @__func__.H5D__earray_idx_delete, i32 noundef 1549, i64 noundef %19, i64 noundef %20, ptr noundef nonnull @.str.41) #11
  br label %64

22:                                               ; preds = %14
  %23 = load i8, ptr @H5D_init_g, align 1, !tbaa !3, !range !7, !noundef !8
  %24 = trunc nuw i8 %23 to i1
  %25 = load i8, ptr @H5_libterm_g, align 1, !range !7
  %26 = trunc nuw i8 %25 to i1
  %27 = xor i1 %26, true
  %28 = select i1 %24, i1 true, i1 %27
  br i1 %28, label %29, label %45, !prof !9

29:                                               ; preds = %22
  %30 = load ptr, ptr %10, align 8, !tbaa !22
  %31 = getelementptr inbounds nuw i8, ptr %30, i64 32
  %32 = load ptr, ptr %31, align 8, !tbaa !21
  %33 = tail call i32 @H5EA_close(ptr noundef %32) #11
  %34 = icmp slt i32 %33, 0
  br i1 %34, label %38, label %35

35:                                               ; preds = %29
  %36 = load ptr, ptr %10, align 8, !tbaa !22
  %37 = getelementptr inbounds nuw i8, ptr %36, i64 32
  store ptr null, ptr %37, align 8, !tbaa !21
  br label %45

38:                                               ; preds = %29
  %39 = load i64, ptr @H5E_DATASET_g, align 8, !tbaa !10
  %40 = load i64, ptr @H5E_CANTCLOSEOBJ_g, align 8, !tbaa !10
  %41 = tail call i32 (ptr, ptr, i32, i64, i64, ptr, ...) @H5E_printf_stack(ptr noundef nonnull @.str.2, ptr noundef nonnull @__func__.H5D__earray_idx_close, i32 noundef 941, i64 noundef %39, i64 noundef %40, ptr noundef nonnull @.str.26) #11
  %42 = load i64, ptr @H5E_DATASET_g, align 8, !tbaa !10
  %43 = load i64, ptr @H5E_CANTCLOSEOBJ_g, align 8, !tbaa !10
  %44 = tail call i32 (ptr, ptr, i32, i64, i64, ptr, ...) @H5E_printf_stack(ptr noundef nonnull @.str.2, ptr noundef nonnull @__func__.H5D__earray_idx_delete, i32 noundef 1553, i64 noundef %42, i64 noundef %43, ptr noundef nonnull @.str.26) #11
  br label %64

45:                                               ; preds = %35, %22
  %46 = load ptr, ptr %0, align 8, !tbaa !34
  store ptr %46, ptr %2, align 8, !tbaa !41
  %47 = getelementptr inbounds nuw i8, ptr %0, i64 16
  %48 = load ptr, ptr %47, align 8, !tbaa !14
  %49 = getelementptr inbounds nuw i8, ptr %48, i64 148
  %50 = load i32, ptr %49, align 4, !tbaa !29
  %51 = getelementptr inbounds nuw i8, ptr %2, i64 8
  store i32 %50, ptr %51, align 8, !tbaa !43
  %52 = load ptr, ptr %10, align 8, !tbaa !22
  %53 = getelementptr inbounds nuw i8, ptr %52, i64 8
  %54 = load i64, ptr %53, align 8, !tbaa !44
  %55 = call i32 @H5EA_delete(ptr noundef %46, i64 noundef %54, ptr noundef nonnull %2) #11
  %56 = icmp slt i32 %55, 0
  br i1 %56, label %57, label %61

57:                                               ; preds = %45
  %58 = load i64, ptr @H5E_DATASET_g, align 8, !tbaa !10
  %59 = load i64, ptr @H5E_CANTDELETE_g, align 8, !tbaa !10
  %60 = call i32 (ptr, ptr, i32, i64, i64, ptr, ...) @H5E_printf_stack(ptr noundef nonnull @.str.2, ptr noundef nonnull @__func__.H5D__earray_idx_delete, i32 noundef 1561, i64 noundef %58, i64 noundef %59, ptr noundef nonnull @.str.42) #11
  br label %64

61:                                               ; preds = %45
  %62 = load ptr, ptr %10, align 8, !tbaa !22
  %63 = getelementptr inbounds nuw i8, ptr %62, i64 8
  store i64 -1, ptr %63, align 8, !tbaa !44
  br label %64

64:                                               ; preds = %61, %57, %38, %18
  %.1 = phi i32 [ -1, %18 ], [ -1, %38 ], [ -1, %57 ], [ 0, %61 ]
  call void @llvm.lifetime.end.p0(i64 16, ptr nonnull %2) #11
  br label %65

65:                                               ; preds = %64, %1, %9
  %.015 = phi i32 [ %.1, %64 ], [ 0, %9 ], [ 0, %1 ]
  ret i32 %.015
}